target datalayout = "e-m:e-p270:32:32-p271:32:32-p272:64:64-i64:64-i128:128-f80:128-n8:16:32:64-S128"
target triple = "x86_64-pc-linux-gnu"

%struct.tdefl_compressor = type { ptr, ptr, i32, [2 x i32], i32, i32, i32, i32, i32, ptr, ptr, ptr, ptr, i32, i32, i32, i32, i32, i32, i32, i32, i32, i32, i32, i32, i32, i32, ptr, ptr, ptr, ptr, i32, ptr, i64, i64, [33025 x i8], [3 x [288 x i16]], [3 x [288 x i16]], [3 x [288 x i8]], [65536 x i8], [32768 x i16], [32768 x i16], [85196 x i8] }

; Function Attrs: nounwind uwtable
define i32 @tdefl_compress(ptr noundef %0, ptr noundef %1, ptr noundef %2, ptr noundef %3, ptr noundef %4, i32 noundef %5) #0 {
  %7 = alloca i32, align 4
  %8 = alloca ptr, align 8
  %9 = alloca ptr, align 8
  %10 = alloca ptr, align 8
  %11 = alloca ptr, align 8
  %12 = alloca ptr, align 8
  %13 = alloca i32, align 4
  store ptr %0, ptr %8, align 8
  store ptr %1, ptr %9, align 8
  store ptr %2, ptr %10, align 8
  store ptr %3, ptr %11, align 8
  store ptr %4, ptr %12, align 8
  store i32 %5, ptr %13, align 4
  %14 = load ptr, ptr %8, align 8
  %15 = icmp ne ptr %14, null
  br i1 %15, label %27, label %16

16:                                               ; preds = %6
  %17 = load ptr, ptr %10, align 8
  %18 = icmp ne ptr %17, null
  br i1 %18, label %19, label %21

19:                                               ; preds = %16
  %20 = load ptr, ptr %10, align 8
  store i64 0, ptr %20, align 8
  br label %21

21:                                               ; preds = %19, %16
  %22 = load ptr, ptr %12, align 8
  %23 = icmp ne ptr %22, null
  br i1 %23, label %24, label %26

24:                                               ; preds = %21
  %25 = load ptr, ptr %12, align 8
  store i64 0, ptr %25, align 8
  br label %26

26:                                               ; preds = %24, %21
  store i32 -2, ptr %7, align 4
  br label %224

27:                                               ; preds = %6
  %28 = load ptr, ptr %9, align 8
  %29 = load ptr, ptr %8, align 8
  %30 = getelementptr inbounds nuw %struct.tdefl_compressor, ptr %29, i32 0, i32 27
  store ptr %28, ptr %30, align 8
  %31 = load ptr, ptr %10, align 8
  %32 = load ptr, ptr %8, align 8
  %33 = getelementptr inbounds nuw %struct.tdefl_compressor, ptr %32, i32 0, i32 29
  store ptr %31, ptr %33, align 8
  %34 = load ptr, ptr %11, align 8
  %35 = load ptr, ptr %8, align 8
  %36 = getelementptr inbounds nuw %struct.tdefl_compressor, ptr %35, i32 0, i32 28
  store ptr %34, ptr %36, align 8
  %37 = load ptr, ptr %12, align 8
  %38 = load ptr, ptr %8, align 8
  %39 = getelementptr inbounds nuw %struct.tdefl_compressor, ptr %38, i32 0, i32 30
  store ptr %37, ptr %39, align 8
  %40 = load ptr, ptr %9, align 8
  %41 = load ptr, ptr %8, align 8
  %42 = getelementptr inbounds nuw %struct.tdefl_compressor, ptr %41, i32 0, i32 32
  store ptr %40, ptr %42, align 8
  %43 = load ptr, ptr %10, align 8
  %44 = icmp ne ptr %43, null
  br i1 %44, label %45, label %48

45:                                               ; preds = %27
  %46 = load ptr, ptr %10, align 8
  %47 = load i64, ptr %46, align 8
  br label %49

48:                                               ; preds = %27
  br label %49

49:                                               ; preds = %48, %45
  %50 = phi i64 [ %47, %45 ], [ 0, %48 ]
  %51 = load ptr, ptr %8, align 8
  %52 = getelementptr inbounds nuw %struct.tdefl_compressor, ptr %51, i32 0, i32 33
  store i64 %50, ptr %52, align 8
  %53 = load ptr, ptr %8, align 8
  %54 = getelementptr inbounds nuw %struct.tdefl_compressor, ptr %53, i32 0, i32 34
  store i64 0, ptr %54, align 8
  %55 = load i32, ptr %13, align 4
  %56 = load ptr, ptr %8, align 8
  %57 = getelementptr inbounds nuw %struct.tdefl_compressor, ptr %56, i32 0, i32 31
  store i32 %55, ptr %57, align 8
  %58 = load ptr, ptr %8, align 8
  %59 = getelementptr inbounds nuw %struct.tdefl_compressor, ptr %58, i32 0, i32 0
  %60 = load ptr, ptr %59, align 8
  %61 = icmp ne ptr %60, null
  %62 = zext i1 %61 to i32
  %63 = load ptr, ptr %11, align 8
  %64 = icmp ne ptr %63, null
  br i1 %64, label %68, label %65

65:                                               ; preds = %49
  %66 = load ptr, ptr %12, align 8
  %67 = icmp ne ptr %66, null
  br label %68

68:                                               ; preds = %65, %49
  %69 = phi i1 [ true, %49 ], [ %67, %65 ]
  %70 = zext i1 %69 to i32
  %71 = icmp eq i32 %62, %70
  br i1 %71, label %105, label %72

72:                                               ; preds = %68
  %73 = load ptr, ptr %8, align 8
  %74 = getelementptr inbounds nuw %struct.tdefl_compressor, ptr %73, i32 0, i32 26
  %75 = load i32, ptr %74, align 4
  %76 = icmp ne i32 %75, 0
  br i1 %76, label %105, label %77

77:                                               ; preds = %72
  %78 = load ptr, ptr %8, align 8
  %79 = getelementptr inbounds nuw %struct.tdefl_compressor, ptr %78, i32 0, i32 25
  %80 = load i32, ptr %79, align 8
  %81 = icmp ne i32 %80, 0
  br i1 %81, label %82, label %85

82:                                               ; preds = %77
  %83 = load i32, ptr %13, align 4
  %84 = icmp ne i32 %83, 4
  br i1 %84, label %105, label %85

85:                                               ; preds = %82, %77
  %86 = load ptr, ptr %10, align 8
  %87 = icmp ne ptr %86, null
  br i1 %87, label %88, label %95

88:                                               ; preds = %85
  %89 = load ptr, ptr %10, align 8
  %90 = load i64, ptr %89, align 8
  %91 = icmp ne i64 %90, 0
  br i1 %91, label %92, label %95

92:                                               ; preds = %88
  %93 = load ptr, ptr %9, align 8
  %94 = icmp ne ptr %93, null
  br i1 %94, label %95, label %105

95:                                               ; preds = %92, %88, %85
  %96 = load ptr, ptr %12, align 8
  %97 = icmp ne ptr %96, null
  br i1 %97, label %98, label %118

98:                                               ; preds = %95
  %99 = load ptr, ptr %12, align 8
  %100 = load i64, ptr %99, align 8
  %101 = icmp ne i64 %100, 0
  br i1 %101, label %102, label %118

102:                                              ; preds = %98
  %103 = load ptr, ptr %11, align 8
  %104 = icmp ne ptr %103, null
  br i1 %104, label %118, label %105

105:                                              ; preds = %102, %92, %82, %72, %68
  %106 = load ptr, ptr %10, align 8
  %107 = icmp ne ptr %106, null
  br i1 %107, label %108, label %110

108:                                              ; preds = %105
  %109 = load ptr, ptr %10, align 8
  store i64 0, ptr %109, align 8
  br label %110

110:                                              ; preds = %108, %105
  %111 = load ptr, ptr %12, align 8
  %112 = icmp ne ptr %111, null
  br i1 %112, label %113, label %115

113:                                              ; preds = %110
  %114 = load ptr, ptr %12, align 8
  store i64 0, ptr %114, align 8
  br label %115

115:                                              ; preds = %113, %110
  %116 = load ptr, ptr %8, align 8
  %117 = getelementptr inbounds nuw %struct.tdefl_compressor, ptr %116, i32 0, i32 26
  store i32 -2, ptr %117, align 4
  store i32 -2, ptr %7, align 4
  br label %224

118:                                              ; preds = %102, %98, %95
  %119 = load i32, ptr %13, align 4
  %120 = icmp eq i32 %119, 4
  %121 = zext i1 %120 to i32
  %122 = load ptr, ptr %8, align 8
  %123 = getelementptr inbounds nuw %struct.tdefl_compressor, ptr %122, i32 0, i32 25
  %124 = load i32, ptr %123, align 8
  %125 = or i32 %124, %121
  store i32 %125, ptr %123, align 8
  %126 = load ptr, ptr %8, align 8
  %127 = getelementptr inbounds nuw %struct.tdefl_compressor, ptr %126, i32 0, i32 22
  %128 = load i32, ptr %127, align 4
  %129 = icmp ne i32 %128, 0
  br i1 %129, label %135, label %130

130:                                              ; preds = %118
  %131 = load ptr, ptr %8, align 8
  %132 = getelementptr inbounds nuw %struct.tdefl_compressor, ptr %131, i32 0, i32 23
  %133 = load i32, ptr %132, align 8
  %134 = icmp ne i32 %133, 0
  br i1 %134, label %135, label %140

135:                                              ; preds = %130, %118
  %136 = load ptr, ptr %8, align 8
  %137 = call i32 @tdefl_flush_output_buffer(ptr noundef %136)
  %138 = load ptr, ptr %8, align 8
  %139 = getelementptr inbounds nuw %struct.tdefl_compressor, ptr %138, i32 0, i32 26
  store i32 %137, ptr %139, align 4
  store i32 %137, ptr %7, align 4
  br label %224

140:                                              ; preds = %130
  %141 = load ptr, ptr %8, align 8
  %142 = call i32 @tdefl_compress_normal(ptr noundef %141)
  %143 = icmp ne i32 %142, 0
  br i1 %143, label %148, label %144

144:                                              ; preds = %140
  %145 = load ptr, ptr %8, align 8
  %146 = getelementptr inbounds nuw %struct.tdefl_compressor, ptr %145, i32 0, i32 26
  %147 = load i32, ptr %146, align 4
  store i32 %147, ptr %7, align 4
  br label %224

148:                                              ; preds = %140
  %149 = load ptr, ptr %8, align 8
  %150 = getelementptr inbounds nuw %struct.tdefl_compressor, ptr %149, i32 0, i32 2
  %151 = load i32, ptr %150, align 8
  %152 = and i32 %151, 12288
  %153 = icmp ne i32 %152, 0
  br i1 %153, label %154, label %174

154:                                              ; preds = %148
  %155 = load ptr, ptr %9, align 8
  %156 = icmp ne ptr %155, null
  br i1 %156, label %157, label %174

157:                                              ; preds = %154
  %158 = load ptr, ptr %8, align 8
  %159 = getelementptr inbounds nuw %struct.tdefl_compressor, ptr %158, i32 0, i32 5
  %160 = load i32, ptr %159, align 8
  %161 = zext i32 %160 to i64
  %162 = load ptr, ptr %9, align 8
  %163 = load ptr, ptr %8, align 8
  %164 = getelementptr inbounds nuw %struct.tdefl_compressor, ptr %163, i32 0, i32 32
  %165 = load ptr, ptr %164, align 8
  %166 = load ptr, ptr %9, align 8
  %167 = ptrtoint ptr %165 to i64
  %168 = ptrtoint ptr %166 to i64
  %169 = sub i64 %167, %168
  %170 = call i64 @mz_adler32(i64 noundef %161, ptr noundef %162, i64 noundef %169)
  %171 = trunc i64 %170 to i32
  %172 = load ptr, ptr %8, align 8
  %173 = getelementptr inbounds nuw %struct.tdefl_compressor, ptr %172, i32 0, i32 5
  store i32 %171, ptr %173, align 8
  br label %174

174:                                              ; preds = %157, %154, %148
  %175 = load i32, ptr %13, align 4
  %176 = icmp ne i32 %175, 0
  br i1 %176, label %177, label %219

177:                                              ; preds = %174
  %178 = load ptr, ptr %8, align 8
  %179 = getelementptr inbounds nuw %struct.tdefl_compressor, ptr %178, i32 0, i32 7
  %180 = load i32, ptr %179, align 8
  %181 = icmp ne i32 %180, 0
  br i1 %181, label %219, label %182

182:                                              ; preds = %177
  %183 = load ptr, ptr %8, align 8
  %184 = getelementptr inbounds nuw %struct.tdefl_compressor, ptr %183, i32 0, i32 33
  %185 = load i64, ptr %184, align 8
  %186 = icmp ne i64 %185, 0
  br i1 %186, label %219, label %187

187:                                              ; preds = %182
  %188 = load ptr, ptr %8, align 8
  %189 = getelementptr inbounds nuw %struct.tdefl_compressor, ptr %188, i32 0, i32 22
  %190 = load i32, ptr %189, align 4
  %191 = icmp ne i32 %190, 0
  br i1 %191, label %219, label %192

192:                                              ; preds = %187
  %193 = load ptr, ptr %8, align 8
  %194 = load i32, ptr %13, align 4
  %195 = call i32 @tdefl_flush_block(ptr noundef %193, i32 noundef %194)
  %196 = icmp slt i32 %195, 0
  br i1 %196, label %197, label %201

197:                                              ; preds = %192
  %198 = load ptr, ptr %8, align 8
  %199 = getelementptr inbounds nuw %struct.tdefl_compressor, ptr %198, i32 0, i32 26
  %200 = load i32, ptr %199, align 4
  store i32 %200, ptr %7, align 4
  br label %224

201:                                              ; preds = %192
  %202 = load i32, ptr %13, align 4
  %203 = icmp eq i32 %202, 4
  %204 = zext i1 %203 to i32
  %205 = load ptr, ptr %8, align 8
  %206 = getelementptr inbounds nuw %struct.tdefl_compressor, ptr %205, i32 0, i32 23
  store i32 %204, ptr %206, align 8
  %207 = load i32, ptr %13, align 4
  %208 = icmp eq i32 %207, 3
  br i1 %208, label %209, label %218

209:                                              ; preds = %201
  %210 = load ptr, ptr %8, align 8
  %211 = getelementptr inbounds nuw %struct.tdefl_compressor, ptr %210, i32 0, i32 41
  %212 = getelementptr inbounds [32768 x i16], ptr %211, i64 0, i64 0
  call void @llvm.memset.p0.i64(ptr align 2 %212, i8 0, i64 65536, i1 false)
  %213 = load ptr, ptr %8, align 8
  %214 = getelementptr inbounds nuw %struct.tdefl_compressor, ptr %213, i32 0, i32 40
  %215 = getelementptr inbounds [32768 x i16], ptr %214, i64 0, i64 0
  call void @llvm.memset.p0.i64(ptr align 2 %215, i8 0, i64 65536, i1 false)
  %216 = load ptr, ptr %8, align 8
  %217 = getelementptr inbounds nuw %struct.tdefl_compressor, ptr %216, i32 0, i32 8
  store i32 0, ptr %217, align 4
  br label %218

218:                                              ; preds = %209, %201
  br label %219

219:                                              ; preds = %218, %187, %182, %177, %174
  %220 = load ptr, ptr %8, align 8
  %221 = call i32 @tdefl_flush_output_buffer(ptr noundef %220)
  %222 = load ptr, ptr %8, align 8
  %223 = getelementptr inbounds nuw %struct.tdefl_compressor, ptr %222, i32 0, i32 26
  store i32 %221, ptr %223, align 4
  store i32 %221, ptr %7, align 4
  br label %224

224:                                              ; preds = %219, %197, %144, %135, %115, %26
  %225 = load i32, ptr %7, align 4
  ret i32 %225
}