; Function Attrs: nounwind uwtable
define i32 @tdefl_compress(ptr noundef %0, ptr noundef %1, ptr noundef %2, ptr noundef %3, ptr noundef %4, i32 noundef %5) local_unnamed_addr #8 {
  %.not = icmp eq ptr %0, null
  br i1 %.not, label %7, label %11

7:                                                ; preds = %6
  %.not82 = icmp eq ptr %2, null
  br i1 %.not82, label %9, label %8

8:                                                ; preds = %7
  store i64 0, ptr %2, align 8
  br label %9

9:                                                ; preds = %8, %7
  %.not83 = icmp eq ptr %4, null
  br i1 %.not83, label %133, label %10

10:                                               ; preds = %9
  store i64 0, ptr %4, align 8
  br label %133

11:                                               ; preds = %6
  %12 = getelementptr inbounds nuw i8, ptr %0, i64 136
  store ptr %1, ptr %12, align 8
  %13 = getelementptr inbounds nuw i8, ptr %0, i64 152
  store ptr %2, ptr %13, align 8
  %14 = getelementptr inbounds nuw i8, ptr %0, i64 144
  store ptr %3, ptr %14, align 8
  %15 = getelementptr inbounds nuw i8, ptr %0, i64 160
  store ptr %4, ptr %15, align 8
  %16 = getelementptr inbounds nuw i8, ptr %0, i64 176
  store ptr %1, ptr %16, align 8
  %.not84 = icmp eq ptr %2, null
  br i1 %.not84, label %19, label %17

17:                                               ; preds = %11
  %18 = load i64, ptr %2, align 8
  br label %19

19:                                               ; preds = %11, %17
  %20 = phi i64 [ %18, %17 ], [ 0, %11 ]
  %21 = getelementptr inbounds nuw i8, ptr %0, i64 184
  store i64 %20, ptr %21, align 8
  %22 = getelementptr inbounds nuw i8, ptr %0, i64 192
  store i64 0, ptr %22, align 8
  %23 = getelementptr inbounds nuw i8, ptr %0, i64 168
  store i32 %5, ptr %23, align 8
  %24 = load ptr, ptr %0, align 8
  %25 = icmp ne ptr %3, null
  %26 = icmp ne ptr %4, null
  %27 = or i1 %25, %26
  %28 = icmp eq ptr %24, null
  %29 = xor i1 %27, %28
  br i1 %29, label %47, label %30

30:                                               ; preds = %19
  %31 = getelementptr inbounds nuw i8, ptr %0, i64 132
  %32 = load i32, ptr %31, align 4
  %.not85 = icmp eq i32 %32, 0
  br i1 %.not85, label %33, label %47

33:                                               ; preds = %30
  %34 = getelementptr inbounds nuw i8, ptr %0, i64 128
  %35 = load i32, ptr %34, align 8
  %36 = icmp ne i32 %35, 0
  %37 = icmp ne i32 %5, 4
  %or.cond = and i1 %37, %36
  br i1 %or.cond, label %47, label %38

38:                                               ; preds = %33
  br i1 %.not84, label %43, label %39

39:                                               ; preds = %38
  %40 = load i64, ptr %2, align 8
  %41 = icmp eq i64 %40, 0
  %42 = icmp ne ptr %1, null
  %or.cond3 = or i1 %42, %41
  br i1 %or.cond3, label %43, label %.thread

43:                                               ; preds = %39, %38
  br i1 %26, label %44, label %52

44:                                               ; preds = %43
  %45 = load i64, ptr %4, align 8
  %46 = icmp eq i64 %45, 0
  %or.cond5 = or i1 %25, %46
  br i1 %or.cond5, label %52, label %47

47:                                               ; preds = %44, %33, %30, %19
  br i1 %.not84, label %48, label %.thread

.thread:                                          ; preds = %39, %47
  store i64 0, ptr %2, align 8
  br label %48

48:                                               ; preds = %.thread, %47
  br i1 %26, label %49, label %50

49:                                               ; preds = %48
  store i64 0, ptr %4, align 8
  br label %50

50:                                               ; preds = %49, %48
  %51 = getelementptr inbounds nuw i8, ptr %0, i64 132
  store i32 -2, ptr %51, align 4
  br label %133

52:                                               ; preds = %44, %43
  %53 = icmp eq i32 %5, 4
  %54 = zext i1 %53 to i32
  %55 = or i32 %35, %54
  store i32 %55, ptr %34, align 8
  %56 = getelementptr inbounds nuw i8, ptr %0, i64 116
  %57 = load i32, ptr %56, align 4
  %.not86 = icmp eq i32 %57, 0
  br i1 %.not86, label %58, label %61

58:                                               ; preds = %52
  %59 = getelementptr inbounds nuw i8, ptr %0, i64 120
  %60 = load i32, ptr %59, align 8
  %.not87 = icmp eq i32 %60, 0
  br i1 %.not87, label %93, label %61

61:                                               ; preds = %58, %52
  br i1 %.not84, label %63, label %62

62:                                               ; preds = %61
  store i64 0, ptr %2, align 8
  %.pre = load ptr, ptr %15, align 8
  br label %63

63:                                               ; preds = %62, %61
  %64 = phi ptr [ %.pre, %62 ], [ %4, %61 ]
  %.not28.i = icmp eq ptr %64, null
  br i1 %.not28.i, label %86, label %65

65:                                               ; preds = %63
  %66 = load i64, ptr %64, align 8
  %67 = load i64, ptr %22, align 8
  %68 = sub i64 %66, %67
  %69 = load i32, ptr %56, align 4
  %70 = zext i32 %69 to i64
  %..i = tail call i64 @llvm.umin.i64(i64 %68, i64 %70)
  %71 = load ptr, ptr %14, align 8
  %72 = getelementptr inbounds nuw i8, ptr %71, i64 %67
  %73 = getelementptr inbounds nuw i8, ptr %0, i64 234154
  %74 = getelementptr inbounds nuw i8, ptr %0, i64 112
  %75 = load i32, ptr %74, align 8
  %76 = zext i32 %75 to i64
  %77 = getelementptr inbounds nuw i8, ptr %73, i64 %76
  tail call void @llvm.memcpy.p0.p0.i64(ptr align 1 %72, ptr nonnull align 1 %77, i64 %..i, i1 false)
  %78 = trunc nuw i64 %..i to i32
  %79 = load i32, ptr %74, align 8
  %80 = add i32 %79, %78
  store i32 %80, ptr %74, align 8
  %81 = load i32, ptr %56, align 4
  %82 = sub i32 %81, %78
  store i32 %82, ptr %56, align 4
  %83 = load i64, ptr %22, align 8
  %84 = add i64 %83, %..i
  store i64 %84, ptr %22, align 8
  %85 = load ptr, ptr %15, align 8
  store i64 %84, ptr %85, align 8
  br label %86

86:                                               ; preds = %65, %63
  %87 = getelementptr inbounds nuw i8, ptr %0, i64 120
  %88 = load i32, ptr %87, align 8
  %.not29.i = icmp eq i32 %88, 0
  br i1 %.not29.i, label %tdefl_flush_output_buffer.exit, label %89

89:                                               ; preds = %86
  %90 = load i32, ptr %56, align 4
  %.not30.i = icmp eq i32 %90, 0
  %91 = zext i1 %.not30.i to i32
  br label %tdefl_flush_output_buffer.exit

tdefl_flush_output_buffer.exit:                   ; preds = %86, %89
  %92 = phi i32 [ 0, %86 ], [ %91, %89 ]
  store i32 %92, ptr %31, align 4
  br label %133

93:                                               ; preds = %58
  %94 = tail call fastcc i32 @tdefl_compress_normal(ptr noundef %0)
  %.not88 = icmp eq i32 %94, 0
  br i1 %.not88, label %95, label %97

95:                                               ; preds = %93
  %96 = load i32, ptr %31, align 4
  br label %133

97:                                               ; preds = %93
  %98 = getelementptr inbounds nuw i8, ptr %0, i64 16
  %99 = load i32, ptr %98, align 8
  %100 = and i32 %99, 12288
  %101 = icmp ne i32 %100, 0
  %102 = icmp ne ptr %1, null
  %or.cond7 = and i1 %102, %101
  br i1 %or.cond7, label %103, label %113

103:                                              ; preds = %97
  %104 = getelementptr inbounds nuw i8, ptr %0, i64 32
  %105 = load i32, ptr %104, align 8
  %106 = zext i32 %105 to i64
  %107 = load ptr, ptr %16, align 8
  %108 = ptrtoint ptr %107 to i64
  %109 = ptrtoint ptr %1 to i64
  %110 = sub i64 %108, %109
  %111 = tail call i64 @mz_adler32(i64 noundef %106, ptr noundef nonnull %1, i64 noundef %110)
  %112 = trunc nuw i64 %111 to i32
  store i32 %112, ptr %104, align 8
  br label %113

113:                                              ; preds = %103, %97
  %.not89 = icmp eq i32 %5, 0
  br i1 %.not89, label %131, label %114

114:                                              ; preds = %113
  %115 = getelementptr inbounds nuw i8, ptr %0, i64 40
  %116 = load i32, ptr %115, align 8
  %.not90 = icmp eq i32 %116, 0
  br i1 %.not90, label %117, label %131

117:                                              ; preds = %114
  %118 = load i64, ptr %21, align 8
  %.not91 = icmp eq i64 %118, 0
  br i1 %.not91, label %119, label %131

119:                                              ; preds = %117
  %120 = load i32, ptr %56, align 4
  %.not92 = icmp eq i32 %120, 0
  br i1 %.not92, label %121, label %131

121:                                              ; preds = %119
  %122 = tail call fastcc i32 @tdefl_flush_block(ptr noundef %0, i32 noundef %5)
  %123 = icmp slt i32 %122, 0
  br i1 %123, label %124, label %126

124:                                              ; preds = %121
  %125 = load i32, ptr %31, align 4
  br label %133

126:                                              ; preds = %121
  store i32 %54, ptr %59, align 8
  %127 = icmp eq i32 %5, 3
  br i1 %127, label %128, label %131

128:                                              ; preds = %126
  %129 = getelementptr inbounds nuw i8, ptr %0, i64 103082
  %130 = getelementptr inbounds nuw i8, ptr %0, i64 44
  store i32 0, ptr %130, align 4
  tail call void @llvm.memset.p0.i64(ptr noundef nonnull align 2 dereferenceable(131072) %129, i8 0, i64 131072, i1 false)
  br label %131

131:                                              ; preds = %126, %128, %119, %117, %114, %113
  %132 = tail call fastcc i32 @tdefl_flush_output_buffer(ptr noundef %0)
  store i32 %132, ptr %31, align 4
  br label %133

133:                                              ; preds = %9, %10, %131, %124, %95, %tdefl_flush_output_buffer.exit, %50
  %.0 = phi i32 [ -2, %50 ], [ %92, %tdefl_flush_output_buffer.exit ], [ %132, %131 ], [ %125, %124 ], [ %96, %95 ], [ -2, %10 ], [ -2, %9 ]
  ret i32 %.0
}